; Function Attrs: mustprogress uwtable
define void @_ZN32pxrInternal_v0_24__pxrReserved__19PcpBuildTargetIndexERKNS_7PcpSiteERKNS_16PcpPropertyIndexENS_11SdfSpecTypeEPNS_14PcpTargetIndexEPSt6vectorISt10shared_ptrINS_12PcpErrorBaseEESaISC_EE(ptr noundef nonnull align 8 dereferenceable(88) %0, ptr noundef nonnull align 8 dereferenceable(32) %1, i32 noundef %2, ptr noundef captures(none) %3, ptr noundef %4) local_unnamed_addr #0 personality ptr @__gxx_personality_v0 {
  %6 = alloca %"class.pxrInternal_v0_24__pxrReserved__::SdfHandle.23", align 8
  store ptr null, ptr %6, align 8
  invoke void @_ZN32pxrInternal_v0_24__pxrReserved__27PcpBuildFilteredTargetIndexERKNS_7PcpSiteERKNS_16PcpPropertyIndexENS_11SdfSpecTypeEbRKNS_9SdfHandleINS_7SdfSpecEEEbPNS_8PcpCacheEPNS_14PcpTargetIndexEPSt6vectorINS_7SdfPathESaISH_EEPSG_ISt10shared_ptrINS_12PcpErrorBaseEESaISN_EE(ptr noundef nonnull align 8 dereferenceable(88) %0, ptr noundef nonnull align 8 dereferenceable(32) %1, i32 noundef %2, i1 noundef zeroext false, ptr noundef nonnull align 8 dereferenceable(8) %6, i1 noundef zeroext false, ptr noundef null, ptr noundef %3, ptr noundef null, ptr noundef %4)
          to label %7 unwind label %8

7:                                                ; preds = %5
  call void @_ZN32pxrInternal_v0_24__pxrReserved__7SdfSpecD1Ev(ptr noundef nonnull align 8 dereferenceable(8) %6) #17
  ret void

8:                                                ; preds = %5
  %9 = landingpad { ptr, i32 }
          cleanup
  call void @_ZN32pxrInternal_v0_24__pxrReserved__7SdfSpecD1Ev(ptr noundef nonnull align 8 dereferenceable(8) %6) #17
  resume { ptr, i32 } %9
}